; Function Attrs: nounwind uwtable
define ptr @l___private_Lean_Compiler_IR_LiveVars_0__Lean_IR_LiveVars_bindParams___boxed(ptr noundef %0, ptr noundef %1) local_unnamed_addr #0 {
  %3 = getelementptr i8, ptr %0, i64 8
  %.val.i = load i64, ptr %3, align 8, !tbaa !12
  %.mask.i = and i64 %.val.i, 9223372036854775807
  %.not.i4 = icmp eq i64 %.mask.i, 0
  br i1 %.not.i4, label %l___private_Lean_Compiler_IR_LiveVars_0__Lean_IR_LiveVars_bindParams.exit, label %lean_dec.exit.i

lean_dec.exit.i:                                  ; preds = %2
  %4 = tail call ptr @l_Array_foldlMUnsafe_fold___at___private_Lean_Compiler_IR_LiveVars_0__Lean_IR_LiveVars_bindParams___spec__1(ptr noundef nonnull readonly %0, i64 noundef 0, i64 noundef %.mask.i, ptr noundef %1)
  br label %l___private_Lean_Compiler_IR_LiveVars_0__Lean_IR_LiveVars_bindParams.exit

l___private_Lean_Compiler_IR_LiveVars_0__Lean_IR_LiveVars_bindParams.exit: ; preds = %2, %lean_dec.exit.i
  %.0.i = phi ptr [ %4, %lean_dec.exit.i ], [ %1, %2 ]
  %5 = ptrtoint ptr %0 to i64
  %6 = and i64 %5, 1
  %.not = icmp eq i64 %6, 0
  br i1 %.not, label %7, label %lean_dec.exit

7:                                                ; preds = %l___private_Lean_Compiler_IR_LiveVars_0__Lean_IR_LiveVars_bindParams.exit
  %8 = load i32, ptr %0, align 4, !tbaa !5
  %9 = icmp sgt i32 %8, 1
  br i1 %9, label %10, label %12, !prof !14

10:                                               ; preds = %7
  %11 = add nsw i32 %8, -1
  store i32 %11, ptr %0, align 4, !tbaa !5
  br label %lean_dec.exit

12:                                               ; preds = %7
  %.not.i = icmp eq i32 %8, 0
  br i1 %.not.i, label %lean_dec.exit, label %13

13:                                               ; preds = %12
  tail call void @lean_dec_ref_cold(ptr noundef nonnull %0) #4
  br label %lean_dec.exit

lean_dec.exit:                                    ; preds = %13, %12, %10, %l___private_Lean_Compiler_IR_LiveVars_0__Lean_IR_LiveVars_bindParams.exit
  ret ptr %.0.i
}